TN:
SF:/home/harri/Dropbox/code/KeyValueStore/include/keyvaluestore/KeyValueStore.hpp
FN:17,_ZN13keyvaluestore18KeyValueStoreErrorC2ERKNSt7__cxx1112basic_stringIcSt11char_traitsIcESaIcEEE
FN:20,_ZN13keyvaluestore18KeyValueStoreErrorC2EPKc
FN:71,_ZN13keyvaluestore13KeyValueStoreD2Ev
FN:71,_ZN13keyvaluestore13KeyValueStoreD0Ev
FN:96,_ZN13keyvaluestore13KeyValueStoreC2Ev
FNDA:0,_ZN13keyvaluestore18KeyValueStoreErrorC2EPKc
FNDA:2,_ZN13keyvaluestore18KeyValueStoreErrorC2ERKNSt7__cxx1112basic_stringIcSt11char_traitsIcESaIcEEE
FNDA:0,_ZN13keyvaluestore13KeyValueStoreD0Ev
FNDA:43,_ZN13keyvaluestore13KeyValueStoreD2Ev
FNDA:43,_ZN13keyvaluestore13KeyValueStoreC2Ev
FNF:5
FNH:3
DA:17,2
DA:18,2
DA:20,0
DA:21,0
DA:71,43
DA:96,43
LF:6
LH:4
end_of_record
TN:
SF:/home/harri/Dropbox/code/KeyValueStore/include/keyvaluestore/MemoryKeyValueStore.hpp
FN:26,_ZN13keyvaluestore19MemoryKeyValueStoreC2Ev
FN:40,_ZN13keyvaluestore19MemoryKeyValueStore3setEiRKNSt7__cxx1112basic_stringIcSt11char_traitsIcESaIcEEERKSt7variantIJS6_idbEE
FN:60,_ZN13keyvaluestore19MemoryKeyValueStore3getEiRKNSt7__cxx1112basic_stringIcSt11char_traitsIcESaIcEEE
FN:83,_ZN13keyvaluestore19MemoryKeyValueStore6existsEiRKNSt7__cxx1112basic_stringIcSt11char_traitsIcESaIcEEE
FN:101,_ZN13keyvaluestore19MemoryKeyValueStore6removeEiRKNSt7__cxx1112basic_stringIcSt11char_traitsIcESaIcEEE
FN:118,_ZN13keyvaluestore19MemoryKeyValueStore10remove_allEi
FN:158,_ZNK13keyvaluestore19MemoryKeyValueStore7KeyHashclERKSt4pairIiNSt7__cxx1112basic_stringIcSt11char_traitsIcESaIcEEEE
FN:175,_ZN13keyvaluestore19MemoryKeyValueStore7makeKeyEiRKNSt7__cxx1112basic_stringIcSt11char_traitsIcESaIcEEE
FNDA:135221,_ZNK13keyvaluestore19MemoryKeyValueStore7KeyHashclERKSt4pairIiNSt7__cxx1112basic_stringIcSt11char_traitsIcESaIcEEEE
FNDA:14434,_ZN13keyvaluestore19MemoryKeyValueStore6existsEiRKNSt7__cxx1112basic_stringIcSt11char_traitsIcESaIcEEE
FNDA:2,_ZN13keyvaluestore19MemoryKeyValueStore10remove_allEi
FNDA:13291,_ZN13keyvaluestore19MemoryKeyValueStore6removeEiRKNSt7__cxx1112basic_stringIcSt11char_traitsIcESaIcEEE
FNDA:15491,_ZN13keyvaluestore19MemoryKeyValueStore3setEiRKNSt7__cxx1112basic_stringIcSt11char_traitsIcESaIcEEERKSt7variantIJS6_idbEE
FNDA:95356,_ZN13keyvaluestore19MemoryKeyValueStore3getEiRKNSt7__cxx1112basic_stringIcSt11char_traitsIcESaIcEEE
FNDA:11,_ZN13keyvaluestore19MemoryKeyValueStoreC2Ev
FNDA:129241,_ZN13keyvaluestore19MemoryKeyValueStore7makeKeyEiRKNSt7__cxx1112basic_stringIcSt11char_traitsIcESaIcEEE
FNF:8
FNH:8
DA:26,11
DA:40,15491
DA:42,15491
DA:43,15496
DA:44,15496
DA:60,95356
DA:62,95356
DA:63,106990
DA:64,95534
DA:65,89307
DA:67,7560
DA:68,104330
DA:83,14434
DA:84,14434
DA:85,28849
DA:86,14424
DA:101,13291
DA:102,13291
DA:103,26590
DA:104,13296
DA:118,2
DA:119,2
DA:120,2
DA:121,2
DA:122,1005
DA:123,1003
DA:124,1001
DA:125,1001
DA:127,2
DA:130,2
DA:131,2
DA:158,135221
DA:159,135221
DA:160,135238
DA:175,129241
DA:176,129241
LF:36
LH:36
end_of_record
TN:
SF:/home/harri/Dropbox/code/KeyValueStore/src/sqlite/SQLiteKeyValueStore.cpp
FN:7,_ZN13keyvaluestore19SQLiteKeyValueStoreC2ERKNSt7__cxx1112basic_stringIcSt11char_traitsIcESaIcEEE
FN:69,_ZN13keyvaluestore19SQLiteKeyValueStoreD2Ev
FN:69,_ZN13keyvaluestore19SQLiteKeyValueStoreD0Ev
FN:71,_ZN13keyvaluestore19SQLiteKeyValueStore16initializeSchemaEv
FN:91,_ZN13keyvaluestore19SQLiteKeyValueStore3setEiRKNSt7__cxx1112basic_stringIcSt11char_traitsIcESaIcEEERKSt7variantIJS6_idbEE
FN:113,_ZN13keyvaluestore19SQLiteKeyValueStore3getEiRKNSt7__cxx1112basic_stringIcSt11char_traitsIcESaIcEEE
FN:142,_ZN13keyvaluestore19SQLiteKeyValueStore6existsEiRKNSt7__cxx1112basic_stringIcSt11char_traitsIcESaIcEEE
FN:156,_ZN13keyvaluestore19SQLiteKeyValueStore6removeEiRKNSt7__cxx1112basic_stringIcSt11char_traitsIcESaIcEEE
FN:174,_ZN13keyvaluestore19SQLiteKeyValueStore10remove_allEi
FN:191,_ZN13keyvaluestore19SQLiteKeyValueStore14serializeValueERKSt7variantIJNSt7__cxx1112basic_stringIcSt11char_traitsIcESaIcEEEidbEE
FN:212,_ZN13keyvaluestore19SQLiteKeyValueStore16deserializeValueERKNSt7__cxx1112basic_stringIcSt11char_traitsIcESaIcEEEc
FNDA:23,_ZN13keyvaluestore19SQLiteKeyValueStoreC2ERKNSt7__cxx1112basic_stringIcSt11char_traitsIcESaIcEEE
FNDA:4030,_ZN13keyvaluestore19SQLiteKeyValueStore16deserializeValueERKNSt7__cxx1112basic_stringIcSt11char_traitsIcESaIcEEEc
FNDA:503,_ZN13keyvaluestore19SQLiteKeyValueStore10remove_allEi
FNDA:5239,_ZN13keyvaluestore19SQLiteKeyValueStore3setEiRKNSt7__cxx1112basic_stringIcSt11char_traitsIcESaIcEEERKSt7variantIJS6_idbEE
FNDA:21,_ZN13keyvaluestore19SQLiteKeyValueStoreD0Ev
FNDA:21,_ZN13keyvaluestore19SQLiteKeyValueStore16initializeSchemaEv
FNDA:1507,_ZN13keyvaluestore19SQLiteKeyValueStore6existsEiRKNSt7__cxx1112basic_stringIcSt11char_traitsIcESaIcEEE
FNDA:5239,_ZN13keyvaluestore19SQLiteKeyValueStore14serializeValueERKSt7variantIJNSt7__cxx1112basic_stringIcSt11char_traitsIcESaIcEEEidbEE
FNDA:5535,_ZN13keyvaluestore19SQLiteKeyValueStore3getEiRKNSt7__cxx1112basic_stringIcSt11char_traitsIcESaIcEEE
FNDA:21,_ZN13keyvaluestore19SQLiteKeyValueStoreD2Ev
FNDA:1001,_ZN13keyvaluestore19SQLiteKeyValueStore6removeEiRKNSt7__cxx1112basic_stringIcSt11char_traitsIcESaIcEEE
FNF:11
FNH:11
DA:7,23
DA:8,46
DA:9,23
DA:10,23
DA:11,23
DA:12,23
DA:13,46
DA:15,23
DA:16,23
DA:17,1
DA:18,2
DA:20,22
DA:23,22
DA:24,22
DA:25,1
DA:26,1
DA:27,1
DA:28,1
DA:30,21
DA:33,21
DA:35,21
DA:36,21
DA:37,0
DA:39,21
DA:41,21
DA:43,21
DA:44,0
DA:46,21
DA:48,21
DA:50,21
DA:51,0
DA:53,21
DA:55,21
DA:57,21
DA:58,0
DA:60,21
DA:62,21
DA:63,21
DA:64,0
DA:66,21
DA:67,35
DA:69,42
DA:71,21
DA:72,21
DA:83,21
DA:84,21
DA:85,0
DA:86,0
DA:87,0
DA:88,0
DA:89,21
DA:91,5239
DA:93,5239
DA:95,5239
DA:97,5239
DA:98,5239
DA:100,5239
DA:101,5239
DA:102,15717
DA:103,5239
DA:104,0
DA:107,5239
DA:108,0
DA:109,0
DA:111,5239
DA:113,5535
DA:115,5535
DA:117,5535
DA:118,5535
DA:120,11070
DA:121,5535
DA:122,0
DA:125,5535
DA:126,4030
DA:127,4030
DA:129,4030
DA:130,0
DA:133,4030
DA:134,4030
DA:136,4030
DA:137,4030
DA:139,1505
DA:140,5535
DA:142,1507
DA:143,1507
DA:145,1507
DA:146,1507
DA:148,3014
DA:149,1507
DA:150,0
DA:153,3014
DA:154,1507
DA:156,1001
DA:157,1001
DA:159,1001
DA:160,1001
DA:162,2002
DA:163,1001
DA:164,0
DA:167,1001
DA:168,0
DA:171,2002
DA:172,1001
DA:174,503
DA:175,503
DA:177,503
DA:178,503
DA:180,503
DA:181,0
DA:184,503
DA:185,0
DA:188,1006
DA:189,503
DA:191,5239
DA:192,5239
DA:193,4038
DA:195,3220
DA:196,3213
DA:198,7
DA:200,4
DA:201,4
DA:202,4
DA:203,4
DA:204,4
DA:205,3
DA:206,6
DA:209,0
DA:212,4030
DA:215,4030
DA:216,15
DA:217,15
DA:219,4008
DA:222,4008
DA:223,4008
DA:224,0
DA:226,4008
DA:227,0
DA:228,0
DA:229,0
DA:230,0
DA:233,4
DA:236,4
DA:237,4
DA:238,0
DA:240,4
DA:241,0
DA:242,0
DA:243,0
DA:244,0
DA:247,3
DA:248,3
DA:249,3
DA:250,0
DA:251,0
DA:253,0
DA:256,0
DA:257,0
DA:258,0
LF:158
LH:122
end_of_record
